target datalayout = "e-m:e-p270:32:32-p271:32:32-p272:64:64-i64:64-i128:128-f80:128-n8:16:32:64-S128"
target triple = "x86_64-pc-linux-gnu"

%"class.std::__cxx11::basic_string" = type { %"struct.std::__cxx11::basic_string<char>::_Alloc_hider", i64, %union.anon }
%"struct.std::__cxx11::basic_string<char>::_Alloc_hider" = type { ptr }
%union.anon = type { i64, [8 x i8] }
%"class.mu::ParserError" = type { %"class.std::__cxx11::basic_string", %"class.std::__cxx11::basic_string", %"class.std::__cxx11::basic_string", i32, i32, ptr }
%class.ParserTag = type { ptr, %"class.mu::ParserError", ptr, i8, i32 }

@_ZTIN2mu11ParserErrorE = linkonce_odr constant { ptr, ptr } { ptr getelementptr inbounds (ptr, ptr @_ZTVN10__cxxabiv117__class_type_infoE, i64 2), ptr @_ZTSN2mu11ParserErrorE }, comdat, align 8

; Function Attrs: inlinehint mustprogress nounwind uwtable
define linkonce_odr noundef ptr @_Z8AsParserPv(ptr noundef %0) #10 comdat {
  %2 = alloca ptr, align 8
  store ptr %0, ptr %2, align 8, !tbaa !32
  %3 = load ptr, ptr %2, align 8, !tbaa !32
  %4 = getelementptr inbounds nuw %class.ParserTag, ptr %3, i32 0, i32 0
  %5 = load ptr, ptr %4, align 8, !tbaa !47
  ret ptr %5
}

; Function Attrs: mustprogress uwtable
define void @mupSetVarFactory(ptr noundef %0, ptr noundef %1, ptr noundef %2) #6 personality ptr @__gxx_personality_v0 {
  %4 = alloca ptr, align 8
  %5 = alloca ptr, align 8
  %6 = alloca ptr, align 8
  %7 = alloca ptr, align 8
  %8 = alloca ptr, align 8
  %9 = alloca i32, align 4
  %10 = alloca ptr, align 8
  %11 = alloca %"class.mu::ParserError", align 8
  %12 = alloca ptr, align 8
  %13 = alloca ptr, align 8
  store ptr %0, ptr %4, align 8, !tbaa !32
  store ptr %1, ptr %5, align 8, !tbaa !32
  store ptr %2, ptr %6, align 8, !tbaa !32
  call void @llvm.lifetime.start.p0(i64 8, ptr %7) #3
  %14 = load ptr, ptr %4, align 8, !tbaa !32
  %15 = invoke noundef ptr @_Z8AsParserPv(ptr noundef %14)
          to label %16 unwind label %21

16:                                               ; preds = %3
  store ptr %15, ptr %7, align 8, !tbaa !33
  %17 = load ptr, ptr %7, align 8, !tbaa !33
  %18 = load ptr, ptr %5, align 8, !tbaa !32
  %19 = load ptr, ptr %6, align 8, !tbaa !32
  invoke void @_ZN2mu10ParserBase13SetVarFactoryEPFPdPKcPvES4_(ptr noundef nonnull align 8 dereferenceable(596) %17, ptr noundef %18, ptr noundef %19)
          to label %20 unwind label %21

20:                                               ; preds = %16
  call void @llvm.lifetime.end.p0(i64 8, ptr %7) #3
  br label %92

21:                                               ; preds = %16, %3
  %22 = landingpad { ptr, i32 }
          catch ptr @_ZTIN2mu11ParserErrorE
          catch ptr null
  %23 = extractvalue { ptr, i32 } %22, 0
  store ptr %23, ptr %8, align 8
  %24 = extractvalue { ptr, i32 } %22, 1
  store i32 %24, ptr %9, align 4
  call void @llvm.lifetime.end.p0(i64 8, ptr %7) #3
  br label %25

25:                                               ; preds = %21
  %26 = load i32, ptr %9, align 4
  %27 = call i32 @llvm.eh.typeid.for.p0(ptr @_ZTIN2mu11ParserErrorE) #3
  %28 = icmp eq i32 %26, %27
  br i1 %28, label %29, label %50

29:                                               ; preds = %25
  call void @llvm.lifetime.start.p0(i64 8, ptr %12) #3
  %30 = load ptr, ptr %8, align 8
  %31 = call ptr @__cxa_begin_catch(ptr %30) #3
  store ptr %31, ptr %12, align 8
  call void @llvm.lifetime.start.p0(i64 8, ptr %13) #3
  %32 = load ptr, ptr %4, align 8, !tbaa !32
  store ptr %32, ptr %13, align 8, !tbaa !35
  %33 = load ptr, ptr %12, align 8, !tbaa !37
  %34 = load ptr, ptr %13, align 8, !tbaa !35
  %35 = getelementptr inbounds nuw %class.ParserTag, ptr %34, i32 0, i32 1
  %36 = invoke noundef nonnull align 8 dereferenceable(112) ptr @_ZN2mu11ParserErroraSERKS0_(ptr noundef nonnull align 8 dereferenceable(112) %35, ptr noundef nonnull align 8 dereferenceable(112) %33)
          to label %37 unwind label %87

37:                                               ; preds = %29
  %38 = load ptr, ptr %13, align 8, !tbaa !35
  %39 = getelementptr inbounds nuw %class.ParserTag, ptr %38, i32 0, i32 3
  store i8 1, ptr %39, align 8, !tbaa !39
  %40 = load ptr, ptr %13, align 8, !tbaa !35
  %41 = getelementptr inbounds nuw %class.ParserTag, ptr %40, i32 0, i32 2
  %42 = load ptr, ptr %41, align 8, !tbaa !46
  %43 = icmp ne ptr %42, null
  br i1 %43, label %44, label %91

44:                                               ; preds = %37
  %45 = load ptr, ptr %13, align 8, !tbaa !35
  %46 = getelementptr inbounds nuw %class.ParserTag, ptr %45, i32 0, i32 2
  %47 = load ptr, ptr %46, align 8, !tbaa !46
  %48 = load ptr, ptr %4, align 8, !tbaa !32
  invoke void %47(ptr noundef %48)
          to label %49 unwind label %87

49:                                               ; preds = %44
  br label %91

50:                                               ; preds = %25
  %51 = load ptr, ptr %8, align 8
  %52 = call ptr @__cxa_begin_catch(ptr %51) #3
  call void @llvm.lifetime.start.p0(i64 8, ptr %10) #3
  %53 = load ptr, ptr %4, align 8, !tbaa !32
  store ptr %53, ptr %10, align 8, !tbaa !35
  call void @llvm.lifetime.start.p0(i64 112, ptr %11) #3
  invoke void @_ZN2mu11ParserErrorC1ENS_11EErrorCodesE(ptr noundef nonnull align 8 dereferenceable(112) %11, i32 noundef 39)
          to label %54 unwind label %71

54:                                               ; preds = %50
  %55 = load ptr, ptr %10, align 8, !tbaa !35
  %56 = getelementptr inbounds nuw %class.ParserTag, ptr %55, i32 0, i32 1
  %57 = invoke noundef nonnull align 8 dereferenceable(112) ptr @_ZN2mu11ParserErroraSERKS0_(ptr noundef nonnull align 8 dereferenceable(112) %56, ptr noundef nonnull align 8 dereferenceable(112) %11)
          to label %58 unwind label %75

58:                                               ; preds = %54
  call void @_ZN2mu11ParserErrorD1Ev(ptr noundef nonnull align 8 dereferenceable(112) %11) #3
  call void @llvm.lifetime.end.p0(i64 112, ptr %11) #3
  %59 = load ptr, ptr %10, align 8, !tbaa !35
  %60 = getelementptr inbounds nuw %class.ParserTag, ptr %59, i32 0, i32 3
  store i8 1, ptr %60, align 8, !tbaa !39
  %61 = load ptr, ptr %10, align 8, !tbaa !35
  %62 = getelementptr inbounds nuw %class.ParserTag, ptr %61, i32 0, i32 2
  %63 = load ptr, ptr %62, align 8, !tbaa !46
  %64 = icmp ne ptr %63, null
  br i1 %64, label %65, label %84

65:                                               ; preds = %58
  %66 = load ptr, ptr %10, align 8, !tbaa !35
  %67 = getelementptr inbounds nuw %class.ParserTag, ptr %66, i32 0, i32 2
  %68 = load ptr, ptr %67, align 8, !tbaa !46
  %69 = load ptr, ptr %4, align 8, !tbaa !32
  invoke void %68(ptr noundef %69)
          to label %70 unwind label %80

70:                                               ; preds = %65
  br label %84

71:                                               ; preds = %50
  %72 = landingpad { ptr, i32 }
          cleanup
  %73 = extractvalue { ptr, i32 } %72, 0
  store ptr %73, ptr %8, align 8
  %74 = extractvalue { ptr, i32 } %72, 1
  store i32 %74, ptr %9, align 4
  br label %79

75:                                               ; preds = %54
  %76 = landingpad { ptr, i32 }
          cleanup
  %77 = extractvalue { ptr, i32 } %76, 0
  store ptr %77, ptr %8, align 8
  %78 = extractvalue { ptr, i32 } %76, 1
  store i32 %78, ptr %9, align 4
  call void @_ZN2mu11ParserErrorD1Ev(ptr noundef nonnull align 8 dereferenceable(112) %11) #3
  br label %79

79:                                               ; preds = %75, %71
  call void @llvm.lifetime.end.p0(i64 112, ptr %11) #3
  br label %85

80:                                               ; preds = %65
  %81 = landingpad { ptr, i32 }
          cleanup
  %82 = extractvalue { ptr, i32 } %81, 0
  store ptr %82, ptr %8, align 8
  %83 = extractvalue { ptr, i32 } %81, 1
  store i32 %83, ptr %9, align 4
  br label %85

84:                                               ; preds = %70, %58
  call void @llvm.lifetime.end.p0(i64 8, ptr %10) #3
  call void @__cxa_end_catch()
  br label %92

85:                                               ; preds = %80, %79
  call void @llvm.lifetime.end.p0(i64 8, ptr %10) #3
  invoke void @__cxa_end_catch()
          to label %86 unwind label %99

86:                                               ; preds = %85
  br label %94

87:                                               ; preds = %44, %29
  %88 = landingpad { ptr, i32 }
          cleanup
  %89 = extractvalue { ptr, i32 } %88, 0
  store ptr %89, ptr %8, align 8
  %90 = extractvalue { ptr, i32 } %88, 1
  store i32 %90, ptr %9, align 4
  call void @llvm.lifetime.end.p0(i64 8, ptr %13) #3
  invoke void @__cxa_end_catch()
          to label %93 unwind label %99

91:                                               ; preds = %49, %37
  call void @llvm.lifetime.end.p0(i64 8, ptr %13) #3
  call void @__cxa_end_catch()
  call void @llvm.lifetime.end.p0(i64 8, ptr %12) #3
  br label %92

92:                                               ; preds = %91, %84, %20
  ret void

93:                                               ; preds = %87
  call void @llvm.lifetime.end.p0(i64 8, ptr %12) #3
  br label %94

94:                                               ; preds = %93, %86
  %95 = load ptr, ptr %8, align 8
  %96 = load i32, ptr %9, align 4
  %97 = insertvalue { ptr, i32 } poison, ptr %95, 0
  %98 = insertvalue { ptr, i32 } %97, i32 %96, 1
  resume { ptr, i32 } %98

99:                                               ; preds = %87, %85
  %100 = landingpad { ptr, i32 }
          catch ptr null
  %101 = extractvalue { ptr, i32 } %100, 0
  call void @__clang_call_terminate(ptr %101) #19
  unreachable
}